(dp1
S'files'
p2
(dp3
S'mimetools'
p4
(dp5
S'index'
p6
(dp7
S'html_filename'
p8
S'mimetools.html'
p9
sS'name'
p10
g4
sS'nums'
p11
ccopy_reg
_reconstructor
p12
(ccoverage.results
Numbers
p13
c__builtin__
object
p14
NtRp15
(dp16
S'n_files'
p17
I1
sS'n_branches'
p18
I0
sS'n_statements'
p19
I162
sS'n_excluded'
p20
I0
sS'n_partial_branches'
p21
I0
sS'n_missing'
p22
I162
sS'n_missing_branches'
p23
I0
sbssS'hash'
p24
S'Q\xc4\x87;\xab\x076\x8f\xa2\x14\x8a\x94\xa8{I}'
p25
ssS'encodings_unicode_escape'
p26
(dp27
g6
(dp28
g8
S'encodings_unicode_escape.html'
p29
sg10
S'encodings.unicode_escape'
p30
sg11
g12
(g13
g14
NtRp31
(dp32
g17
I1
sg18
I0
sg19
I16
sg20
I0
sg21
I0
sg22
I16
sg23
I0
sbssg24
S't\x98s\xb6\xcf\xcf\xe7\xbe\xffc\xbc\xa3S3\xfd\x8a'
p33
ssS'six'
p34
(dp35
g6
(dp36
g8
S'six.html'
p37
sg10
g34
sg11
g12
(g13
g14
NtRp38
(dp39
g17
I1
sg18
I0
sg19
I230
sg20
I0
sg21
I0
sg22
I127
sg23
I0
sbssg24
S'\xa4\xd6\xa0a1),3~e\t/\x03\xd1\x96y'
p40
ssS'json_scanner'
p41
(dp42
g6
(dp43
g8
S'json_scanner.html'
p44
sg10
S'json.scanner'
p45
sg11
g12
(g13
g14
NtRp46
(dp47
g17
I1
sg18
I0
sg19
I52
sg20
I0
sg21
I0
sg22
I52
sg23
I0
sbssg24
S'$\xcb\xac\xc2\x18\x18\xa3\x18a\xf17\x99\xb4\xc6_e'
p48
ssS'tweet_generators'
p49
(dp50
g6
(dp51
g8
S'tweet_generators.html'
p52
sg10
g49
sg11
g12
(g13
g14
NtRp53
(dp54
g17
I1
sg18
I0
sg19
I25
sg20
I0
sg21
I0
sg22
I18
sg23
I0
sbssg24
S'u,\x985\x1e\xba\x86\x14&\xdaUS\x13\xdf\xb9\t'
p55
ssS'simplejson_compat'
p56
(dp57
g6
(dp58
g8
S'simplejson_compat.html'
p59
sg10
S'simplejson.compat'
p60
sg11
g12
(g13
g14
NtRp61
(dp62
g17
I1
sg18
I0
sg19
I36
sg20
I0
sg21
I0
sg22
I19
sg23
I0
sbssg24
S"\xfd\xd0\xda\x01\x04*8\xb3\xba&\xf7\xed'*\x985"
p63
ssS'numbers'
p64
(dp65
g6
(dp66
g8
S'numbers.html'
p67
sg10
g64
sg11
g12
(g13
g14
NtRp68
(dp69
g17
I1
sg18
I0
sg19
I132
sg20
I0
sg21
I0
sg22
I132
sg23
I0
sbssg24
S'N1G\xf5\x07\xa6\xe0\xbax\x91\x92\xe0\x96\xb3\xf3\x88'
p70
ssS'calendar'
p71
(dp72
g6
(dp73
g8
S'calendar.html'
p74
sg10
g71
sg11
g12
(g13
g14
NtRp75
(dp76
g17
I1
sg18
I0
sg19
I385
sg20
I0
sg21
I0
sg22
I385
sg23
I0
sbssg24
S'\xb2{JK\xd9\xfcN\xa8\x8f\xd1\xfcm\xb9R\xe5\x9b'
p77
ssS'dateutil'
p78
(dp79
g6
(dp80
g8
S'dateutil.html'
p81
sg10
g78
sg11
g12
(g13
g14
NtRp82
(dp83
g17
I1
sg18
I0
sg19
I4
sg20
I0
sg21
I0
sg22
I0
sg23
I0
sbssg24
S'w\xe4Y\xad\r\xcc\xf4\xdc\xa9\xcb2\xad\xff\xcb\xedh'
p84
ssS'simplejson_decoder'
p85
(dp86
g6
(dp87
g8
S'simplejson_decoder.html'
p88
sg10
S'simplejson.decoder'
p89
sg11
g12
(g13
g14
NtRp90
(dp91
g17
I1
sg18
I0
sg19
I219
sg20
I0
sg21
I0
sg22
I164
sg23
I0
sbssg24
S'~\xb0$\xf1@%\xa26\\\xe4\xe1\xb3L\x97\xe4\xa2'
p92
ssS'sql_convenience'
p93
(dp94
g6
(dp95
g8
S'sql_convenience.html'
p96
sg10
g93
sg11
g12
(g13
g14
NtRp97
(dp98
g17
I1
sg18
I0
sg19
I92
sg20
I0
sg21
I0
sg22
I21
sg23
I0
sbssg24
S'1\x85vTi\xb9\rT\xecUy\xb1^\xc1\xc8\xa6'
p99
ssS'ner_apis'
p100
(dp101
g6
(dp102
g8
S'ner_apis.html'
p103
sg10
g100
sg11
g12
(g13
g14
NtRp104
(dp105
g17
I1
sg18
I0
sg19
I0
sg20
I0
sg21
I0
sg22
I0
sg23
I0
sbssg24
S'\xb0\xc8pN\xaf>\xa0\xbaz\x144\xe0A9\xb8?'
p106
ssS'rfc822'
p107
(dp108
g6
(dp109
g8
S'rfc822.html'
p110
sg10
g107
sg11
g12
(g13
g14
NtRp111
(dp112
g17
I1
sg18
I0
sg19
I574
sg20
I0
sg21
I0
sg22
I574
sg23
I0
sbssg24
S'\x1d[\xbe4\x12\xbf\x00\x12#=\xcd}\xebe\xa7\xe1'
p113
ssS'json'
p114
(dp115
g6
(dp116
g8
S'json.html'
p117
sg10
g114
sg11
g12
(g13
g14
NtRp118
(dp119
g17
I1
sg18
I0
sg19
I39
sg20
I0
sg21
I0
sg22
I39
sg23
I0
sbssg24
S'\x1e\xe4\xfdW\xb0\x014\xb0\xc7U\xc8\x1d\x10)\x9d\xf1'
p120
ssS'json_encoder'
p121
(dp122
g6
(dp123
g8
S'json_encoder.html'
p124
sg10
S'json.encoder'
p125
sg11
g12
(g13
g14
NtRp126
(dp127
g17
I1
sg18
I0
sg19
I241
sg20
I0
sg21
I0
sg22
I241
sg23
I0
sbssg24
S'\x16\x80\x8da\x9d\xdd\xa0C\x13\xb9\x8e\x1d)\xb7\xdbz'
p128
ssS'sqlite3'
p129
(dp130
g6
(dp131
g8
S'sqlite3.html'
p132
sg10
g129
sg11
g12
(g13
g14
NtRp133
(dp134
g17
I1
sg18
I0
sg19
I1
sg20
I0
sg21
I0
sg22
I1
sg23
I0
sbssg24
S'\xc9v\xf2\xfbf\x8b\x16\xdc\x07\x87?\xcb\x7f\xc6\xd6\x0f'
p135
ssS'ner_apis_opencalais_opencalais_key'
p136
(dp137
g6
(dp138
g8
S'ner_apis_opencalais_opencalais_key.html'
p139
sg10
S'ner_apis.opencalais.opencalais_key'
p140
sg11
g12
(g13
g14
NtRp141
(dp142
g17
I1
sg18
I0
sg19
I1
sg20
I0
sg21
I0
sg22
I0
sg23
I0
sbssg24
S'0\xfa\x1c\xf6nQ\x18\x877\xf0\x85p\x0e\xd6\xd4\xbc'
p143
ssS'config'
p144
(dp145
g6
(dp146
g8
S'config.html'
p147
sg10
g144
sg11
g12
(g13
g14
NtRp148
(dp149
g17
I1
sg18
I0
sg19
I28
sg20
I0
sg21
I0
sg22
I3
sg23
I0
sbssg24
S'\x04\xd1\xbeCe)% \xeed\xc1F\x9c\xf2Jq'
p150
ssS'ner_apis_opencalais'
p151
(dp152
g6
(dp153
g8
S'ner_apis_opencalais.html'
p154
sg10
S'ner_apis.opencalais'
p155
sg11
g12
(g13
g14
NtRp156
(dp157
g17
I1
sg18
I0
sg19
I0
sg20
I0
sg21
I0
sg22
I0
sg23
I0
sbssg24
S'\xb0\xc8pN\xaf>\xa0\xbaz\x144\xe0A9\xb8?'
p158
ssS'simplejson'
p159
(dp160
g6
(dp161
g8
S'simplejson.html'
p162
sg10
g159
sg11
g12
(g13
g14
NtRp163
(dp164
g17
I1
sg18
I0
sg19
I79
sg20
I0
sg21
I0
sg22
I54
sg23
I0
sbssg24
S'*\x96 \xd4\xf9\xcd\xedI\x1e8\r\xde\x06S0/'
p165
ssS'dateutil_parser'
p166
(dp167
g6
(dp168
g8
S'dateutil_parser.html'
p169
sg10
S'dateutil.parser'
p170
sg11
g12
(g13
g14
NtRp171
(dp172
g17
I1
sg18
I0
sg19
I626
sg20
I0
sg21
I0
sg22
I349
sg23
I0
sbssg24
S'\xd1zX\xd5A\xcbA\xb5\x81&\xa8h\xb1\t\x0f\xdc'
p173
ssS'tweet_annotator'
p174
(dp175
g6
(dp176
g8
S'tweet_annotator.html'
p177
sg10
g174
sg11
g12
(g13
g14
NtRp178
(dp179
g17
I1
sg18
I0
sg19
I71
sg20
I0
sg21
I0
sg22
I54
sg23
I0
sbssg24
S'?\xdc\x1a\x9e\x07\xa3N\xd8\xd5\x0e\x16lvoZ\x86'
p180
ssS'sqlite3_dbapi2'
p181
(dp182
g6
(dp183
g8
S'sqlite3_dbapi2.html'
p184
sg10
S'sqlite3.dbapi2'
p185
sg11
g12
(g13
g14
NtRp186
(dp187
g17
I1
sg18
I0
sg19
I41
sg20
I0
sg21
I0
sg22
I41
sg23
I0
sbssg24
S'e\xe0=\xf7\x90{@Zjf\xfd[eq\xaa\x0e'
p188
ssS'ner_apis_opencalais_calais'
p189
(dp190
g6
(dp191
g8
S'ner_apis_opencalais_calais.html'
p192
sg10
S'ner_apis.opencalais.calais'
p193
sg11
g12
(g13
g14
NtRp194
(dp195
g17
I1
sg18
I0
sg19
I135
sg20
I0
sg21
I0
sg22
I69
sg23
I0
sbssg24
S'\xd3\x98\x17\xcd\xee\xfd^.\xa8\xbb{"x\xbf)\x9d'
p196
ssS'json_decoder'
p197
(dp198
g6
(dp199
g8
S'json_decoder.html'
p200
sg10
S'json.decoder'
p201
sg11
g12
(g13
g14
NtRp202
(dp203
g17
I1
sg18
I0
sg19
I222
sg20
I0
sg21
I0
sg22
I222
sg23
I0
sbssg24
S'\xb5U\xddD\xb9\xf73\xf8|\xa3D^\x95:\x0e\x08'
p204
ssS'argparse'
p205
(dp206
g6
(dp207
g8
S'argparse.html'
p208
sg10
g205
sg11
g12
(g13
g14
NtRp209
(dp210
g17
I1
sg18
I0
sg19
I1177
sg20
I0
sg21
I0
sg22
I1177
sg23
I0
sbssg24
S'>\x8e=\xda\x0f\xc0-)\x04\xa9\x92\x0c\x9e\xf8\xb6\x99'
p211
ssS'httplib'
p212
(dp213
g6
(dp214
g8
S'httplib.html'
p215
sg10
g212
sg11
g12
(g13
g14
NtRp216
(dp217
g17
I1
sg18
I0
sg19
I704
sg20
I0
sg21
I0
sg22
I704
sg23
I0
sbssg24
S'rF\xbf\x05~~\x8c\x1c\xd1\xf4\xcd\xd5\xc1\xccV\xed'
p218
ssS'decimal'
p219
(dp220
g6
(dp221
g8
S'decimal.html'
p222
sg10
g219
sg11
g12
(g13
g14
NtRp223
(dp224
g17
I1
sg18
I0
sg19
I2485
sg20
I0
sg21
I0
sg22
I2485
sg23
I0
sbssg24
S'\x1e\r\xaf.\xe9I\x1f\xdb\x89\xd6\xcaz\x96"\x03\x7f'
p225
ssS'simplejson_encoder'
p226
(dp227
g6
(dp228
g8
S'simplejson_encoder.html'
p229
sg10
S'simplejson.encoder'
p230
sg11
g12
(g13
g14
NtRp231
(dp232
g17
I1
sg18
I0
sg19
I340
sg20
I2
sg21
I0
sg22
I288
sg23
I0
sbssg24
S'\xbaN\xe0\x93tw|\x8e\x82F\xb5e\x9bv\xcf>'
p233
ssS'dateutil_tz'
p234
(dp235
g6
(dp236
g8
S'dateutil_tz.html'
p237
sg10
S'dateutil.tz'
p238
sg11
g12
(g13
g14
NtRp239
(dp240
g17
I1
sg18
I0
sg19
I581
sg20
I0
sg21
I0
sg22
I478
sg23
I0
sbssg24
S'>\x1c"Rl-\xd9\x166\xd7\xb3\xda=\x9b\xaa\x8d'
p241
ssS'encodings_hex_codec'
p242
(dp243
g6
(dp244
g8
S'encodings_hex_codec.html'
p245
sg10
S'encodings.hex_codec'
p246
sg11
g12
(g13
g14
NtRp247
(dp248
g17
I1
sg18
I0
sg19
I28
sg20
I0
sg21
I0
sg22
I28
sg23
I0
sbssg24
S'\xa4g4d\xd88\xd4\x16\xeb\xfbb\xac\xbc\xa1h\xc6'
p249
ssS'dateutil_relativedelta'
p250
(dp251
g6
(dp252
g8
S'dateutil_relativedelta.html'
p253
sg10
S'dateutil.relativedelta'
p254
sg11
g12
(g13
g14
NtRp255
(dp256
g17
I1
sg18
I0
sg19
I223
sg20
I0
sg21
I0
sg22
I192
sg23
I0
sbssg24
S'\xac\x89\x99\x85J,\xc3\xd5\x9d\x9d6\xf1\xedJ~\xf9'
p257
ssS'ner_apis_opencalais_opencalais_ner'
p258
(dp259
g6
(dp260
g8
S'ner_apis_opencalais_opencalais_ner.html'
p261
sg10
S'ner_apis.opencalais.opencalais_ner'
p262
sg11
g12
(g13
g14
NtRp263
(dp264
g17
I1
sg18
I0
sg19
I37
sg20
I0
sg21
I0
sg22
I4
sg23
I0
sbssg24
S'\xee\x1f\xec\xea\xf1G\xc5\x0e\xedG\x87\x1f-\r\xd2J'
p265
ssS'simplejson_scanner'
p266
(dp267
g6
(dp268
g8
S'simplejson_scanner.html'
p269
sg10
S'simplejson.scanner'
p270
sg11
g12
(g13
g14
NtRp271
(dp272
g17
I1
sg18
I0
sg19
I87
sg20
I0
sg21
I0
sg22
I73
sg23
I0
sbssg24
S'E\xba=J\xbc\x0f\xba\xf1\xd4H;\x0f\xb0vy\xd3'
p273
ssS'ner_apis_ner_api_caller'
p274
(dp275
g6
(dp276
g8
S'ner_apis_ner_api_caller.html'
p277
sg10
S'ner_apis.ner_api_caller'
p278
sg11
g12
(g13
g14
NtRp279
(dp280
g17
I1
sg18
I0
sg19
I44
sg20
I0
sg21
I0
sg22
I0
sg23
I0
sbssg24
S'\xaf\x19\xbca\xde\xe9\xf6|2\x96x\x1b\xdd\xcb\xbe\xbe'
p281
sssS'version'
p282
S'3.6'
p283
sS'settings'
p284
S'\x0f\xd0JHYv\x01n\xf0\xee\xc3\xb3\xad.\xf1\xae'
p285
sS'format'
p286
I1
s.